target datalayout = "e-m:e-p270:32:32-p271:32:32-p272:64:64-i64:64-i128:128-f80:128-n8:16:32:64-S128"
target triple = "x86_64-pc-linux-gnu"

%struct.Kit_Sop_t_ = type { i32, i32, ptr }
%struct.Vec_Int_t_ = type { i32, i32, ptr }

; Function Attrs: inlinehint nounwind uwtable
define internal i32 @Kit_SopCube(ptr noundef %0, i32 noundef %1) #2 {
  %3 = alloca ptr, align 8
  %4 = alloca i32, align 4
  store ptr %0, ptr %3, align 8, !tbaa !3
  store i32 %1, ptr %4, align 4, !tbaa !10
  %5 = load ptr, ptr %3, align 8, !tbaa !3
  %6 = getelementptr inbounds nuw %struct.Kit_Sop_t_, ptr %5, i32 0, i32 2
  %7 = load ptr, ptr %6, align 8, !tbaa !15
  %8 = load i32, ptr %4, align 4, !tbaa !10
  %9 = sext i32 %8 to i64
  %10 = getelementptr inbounds i32, ptr %7, i64 %9
  %11 = load i32, ptr %10, align 4, !tbaa !10
  ret i32 %11
}

; Function Attrs: inlinehint nounwind uwtable
define internal i32 @Kit_SopCubeNum(ptr noundef %0) #2 {
  %2 = alloca ptr, align 8
  store ptr %0, ptr %2, align 8, !tbaa !3
  %3 = load ptr, ptr %2, align 8, !tbaa !3
  %4 = getelementptr inbounds nuw %struct.Kit_Sop_t_, ptr %3, i32 0, i32 1
  %5 = load i32, ptr %4, align 4, !tbaa !12
  ret i32 %5
}

; Function Attrs: inlinehint nounwind uwtable
define internal i32 @Kit_CubeHasLit(i32 noundef %0, i32 noundef %1) #2 {
  %3 = alloca i32, align 4
  %4 = alloca i32, align 4
  store i32 %0, ptr %3, align 4, !tbaa !10
  store i32 %1, ptr %4, align 4, !tbaa !10
  %5 = load i32, ptr %3, align 4, !tbaa !10
  %6 = load i32, ptr %4, align 4, !tbaa !10
  %7 = shl i32 1, %6
  %8 = and i32 %5, %7
  %9 = icmp ugt i32 %8, 0
  %10 = zext i1 %9 to i32
  ret i32 %10
}

; Function Attrs: inlinehint nounwind uwtable
define internal void @Kit_SopPushCube(ptr noundef %0, i32 noundef %1) #2 {
  %3 = alloca ptr, align 8
  %4 = alloca i32, align 4
  store ptr %0, ptr %3, align 8, !tbaa !3
  store i32 %1, ptr %4, align 4, !tbaa !10
  %5 = load i32, ptr %4, align 4, !tbaa !10
  %6 = load ptr, ptr %3, align 8, !tbaa !3
  %7 = getelementptr inbounds nuw %struct.Kit_Sop_t_, ptr %6, i32 0, i32 2
  %8 = load ptr, ptr %7, align 8, !tbaa !15
  %9 = load ptr, ptr %3, align 8, !tbaa !3
  %10 = getelementptr inbounds nuw %struct.Kit_Sop_t_, ptr %9, i32 0, i32 1
  %11 = load i32, ptr %10, align 4, !tbaa !12
  %12 = add nsw i32 %11, 1
  store i32 %12, ptr %10, align 4, !tbaa !12
  %13 = sext i32 %11 to i64
  %14 = getelementptr inbounds i32, ptr %8, i64 %13
  store i32 %5, ptr %14, align 4, !tbaa !10
  ret void
}

; Function Attrs: inlinehint nounwind uwtable
define internal i32 @Kit_CubeSetLit(i32 noundef %0, i32 noundef %1) #2 {
  %3 = alloca i32, align 4
  %4 = alloca i32, align 4
  store i32 %0, ptr %3, align 4, !tbaa !10
  store i32 %1, ptr %4, align 4, !tbaa !10
  %5 = load i32, ptr %3, align 4, !tbaa !10
  %6 = load i32, ptr %4, align 4, !tbaa !10
  %7 = shl i32 1, %6
  %8 = or i32 %5, %7
  ret i32 %8
}

; Function Attrs: inlinehint nounwind uwtable
define internal ptr @Vec_IntFetch(ptr noundef %0, i32 noundef %1) #2 {
  %3 = alloca ptr, align 8
  %4 = alloca ptr, align 8
  %5 = alloca i32, align 4
  store ptr %0, ptr %4, align 8, !tbaa !8
  store i32 %1, ptr %5, align 4, !tbaa !10
  %6 = load i32, ptr %5, align 4, !tbaa !10
  %7 = icmp eq i32 %6, 0
  br i1 %7, label %8, label %9

8:                                                ; preds = %2
  store ptr null, ptr %3, align 8
  br label %36

9:                                                ; preds = %2
  %10 = load i32, ptr %5, align 4, !tbaa !10
  %11 = load ptr, ptr %4, align 8, !tbaa !8
  %12 = getelementptr inbounds nuw %struct.Vec_Int_t_, ptr %11, i32 0, i32 1
  %13 = load i32, ptr %12, align 4, !tbaa !18
  %14 = add nsw i32 %13, %10
  store i32 %14, ptr %12, align 4, !tbaa !18
  %15 = load ptr, ptr %4, align 8, !tbaa !8
  %16 = getelementptr inbounds nuw %struct.Vec_Int_t_, ptr %15, i32 0, i32 1
  %17 = load i32, ptr %16, align 4, !tbaa !18
  %18 = load ptr, ptr %4, align 8, !tbaa !8
  %19 = getelementptr inbounds nuw %struct.Vec_Int_t_, ptr %18, i32 0, i32 0
  %20 = load i32, ptr %19, align 8, !tbaa !20
  %21 = icmp sgt i32 %17, %20
  br i1 %21, label %22, label %23

22:                                               ; preds = %9
  store ptr null, ptr %3, align 8
  br label %36

23:                                               ; preds = %9
  %24 = load ptr, ptr %4, align 8, !tbaa !8
  %25 = getelementptr inbounds nuw %struct.Vec_Int_t_, ptr %24, i32 0, i32 2
  %26 = load ptr, ptr %25, align 8, !tbaa !21
  %27 = load ptr, ptr %4, align 8, !tbaa !8
  %28 = getelementptr inbounds nuw %struct.Vec_Int_t_, ptr %27, i32 0, i32 1
  %29 = load i32, ptr %28, align 4, !tbaa !18
  %30 = sext i32 %29 to i64
  %31 = getelementptr inbounds i32, ptr %26, i64 %30
  %32 = load i32, ptr %5, align 4, !tbaa !10
  %33 = sext i32 %32 to i64
  %34 = sub i64 0, %33
  %35 = getelementptr inbounds i32, ptr %31, i64 %34
  store ptr %35, ptr %3, align 8
  br label %36

36:                                               ; preds = %23, %22, %8
  %37 = load ptr, ptr %3, align 8
  ret ptr %37
}

; Function Attrs: nounwind uwtable
define i32 @Kit_SopBestLiteral(ptr noundef %0, i32 noundef %1, i32 noundef %2) #0 {
  %4 = alloca i32, align 4
  %5 = alloca ptr, align 8
  %6 = alloca i32, align 4
  %7 = alloca i32, align 4
  %8 = alloca i32, align 4
  %9 = alloca i32, align 4
  %10 = alloca i32, align 4
  %11 = alloca i32, align 4
  %12 = alloca i32, align 4
  %13 = alloca i32, align 4
  %14 = alloca i32, align 4
  %15 = alloca i32, align 4
  store ptr %0, ptr %5, align 8, !tbaa !3
  store i32 %1, ptr %6, align 4, !tbaa !10
  store i32 %2, ptr %7, align 4, !tbaa !10
  call void @llvm.lifetime.start.p0(i64 4, ptr %8) #3
  call void @llvm.lifetime.start.p0(i64 4, ptr %9) #3
  call void @llvm.lifetime.start.p0(i64 4, ptr %10) #3
  call void @llvm.lifetime.start.p0(i64 4, ptr %11) #3
  call void @llvm.lifetime.start.p0(i64 4, ptr %12) #3
  call void @llvm.lifetime.start.p0(i64 4, ptr %13) #3
  call void @llvm.lifetime.start.p0(i64 4, ptr %14) #3
  store i32 1, ptr %14, align 4, !tbaa !10
  store i32 -1, ptr %11, align 4, !tbaa !10
  store i32 -1, ptr %12, align 4, !tbaa !10
  store i32 0, ptr %9, align 4, !tbaa !10
  br label %16

16:                                               ; preds = %75, %3
  %17 = load i32, ptr %9, align 4, !tbaa !10
  %18 = load i32, ptr %6, align 4, !tbaa !10
  %19 = icmp slt i32 %17, %18
  br i1 %19, label %20, label %78

20:                                               ; preds = %16
  %21 = load i32, ptr %7, align 4, !tbaa !10
  %22 = load i32, ptr %9, align 4, !tbaa !10
  %23 = call i32 @Kit_CubeHasLit(i32 noundef %21, i32 noundef %22)
  %24 = icmp ne i32 %23, 0
  br i1 %24, label %26, label %25

25:                                               ; preds = %20
  br label %75

26:                                               ; preds = %20
  store i32 0, ptr %13, align 4, !tbaa !10
  store i32 0, ptr %10, align 4, !tbaa !10
  br label %27

27:                                               ; preds = %48, %26
  %28 = load i32, ptr %10, align 4, !tbaa !10
  %29 = load ptr, ptr %5, align 8, !tbaa !3
  %30 = call i32 @Kit_SopCubeNum(ptr noundef %29)
  %31 = icmp slt i32 %28, %30
  br i1 %31, label %32, label %37

32:                                               ; preds = %27
  %33 = load ptr, ptr %5, align 8, !tbaa !3
  %34 = load i32, ptr %10, align 4, !tbaa !10
  %35 = call i32 @Kit_SopCube(ptr noundef %33, i32 noundef %34)
  store i32 %35, ptr %8, align 4, !tbaa !10
  %36 = icmp ne i32 %35, 0
  br label %37

37:                                               ; preds = %32, %27
  %38 = phi i1 [ false, %27 ], [ %36, %32 ]
  br i1 %38, label %39, label %51

39:                                               ; preds = %37
  %40 = load i32, ptr %8, align 4, !tbaa !10
  %41 = load i32, ptr %9, align 4, !tbaa !10
  %42 = call i32 @Kit_CubeHasLit(i32 noundef %40, i32 noundef %41)
  %43 = icmp ne i32 %42, 0
  br i1 %43, label %44, label %47

44:                                               ; preds = %39
  %45 = load i32, ptr %13, align 4, !tbaa !10
  %46 = add nsw i32 %45, 1
  store i32 %46, ptr %13, align 4, !tbaa !10
  br label %47

47:                                               ; preds = %44, %39
  br label %48

48:                                               ; preds = %47
  %49 = load i32, ptr %10, align 4, !tbaa !10
  %50 = add nsw i32 %49, 1
  store i32 %50, ptr %10, align 4, !tbaa !10
  br label %27, !llvm.loop !39

51:                                               ; preds = %37
  %52 = load i32, ptr %13, align 4, !tbaa !10
  %53 = icmp slt i32 %52, 2
  br i1 %53, label %54, label %55

54:                                               ; preds = %51
  br label %75

55:                                               ; preds = %51
  %56 = load i32, ptr %14, align 4, !tbaa !10
  %57 = icmp ne i32 %56, 0
  br i1 %57, label %58, label %66

58:                                               ; preds = %55
  %59 = load i32, ptr %12, align 4, !tbaa !10
  %60 = load i32, ptr %13, align 4, !tbaa !10
  %61 = icmp slt i32 %59, %60
  br i1 %61, label %62, label %65

62:                                               ; preds = %58
  %63 = load i32, ptr %13, align 4, !tbaa !10
  store i32 %63, ptr %12, align 4, !tbaa !10
  %64 = load i32, ptr %9, align 4, !tbaa !10
  store i32 %64, ptr %11, align 4, !tbaa !10
  br label %65

65:                                               ; preds = %62, %58
  br label %74

66:                                               ; preds = %55
  %67 = load i32, ptr %12, align 4, !tbaa !10
  %68 = load i32, ptr %13, align 4, !tbaa !10
  %69 = icmp sle i32 %67, %68
  br i1 %69, label %70, label %73

70:                                               ; preds = %66
  %71 = load i32, ptr %13, align 4, !tbaa !10
  store i32 %71, ptr %12, align 4, !tbaa !10
  %72 = load i32, ptr %9, align 4, !tbaa !10
  store i32 %72, ptr %11, align 4, !tbaa !10
  br label %73

73:                                               ; preds = %70, %66
  br label %74

74:                                               ; preds = %73, %65
  br label %75

75:                                               ; preds = %74, %54, %25
  %76 = load i32, ptr %9, align 4, !tbaa !10
  %77 = add nsw i32 %76, 1
  store i32 %77, ptr %9, align 4, !tbaa !10
  br label %16, !llvm.loop !40

78:                                               ; preds = %16
  %79 = load i32, ptr %12, align 4, !tbaa !10
  %80 = icmp sge i32 %79, 0
  br i1 %80, label %81, label %83

81:                                               ; preds = %78
  %82 = load i32, ptr %11, align 4, !tbaa !10
  store i32 %82, ptr %4, align 4
  store i32 1, ptr %15, align 4
  br label %84

83:                                               ; preds = %78
  store i32 -1, ptr %4, align 4
  store i32 1, ptr %15, align 4
  br label %84

84:                                               ; preds = %83, %81
  call void @llvm.lifetime.end.p0(i64 4, ptr %14) #3
  call void @llvm.lifetime.end.p0(i64 4, ptr %13) #3
  call void @llvm.lifetime.end.p0(i64 4, ptr %12) #3
  call void @llvm.lifetime.end.p0(i64 4, ptr %11) #3
  call void @llvm.lifetime.end.p0(i64 4, ptr %10) #3
  call void @llvm.lifetime.end.p0(i64 4, ptr %9) #3
  call void @llvm.lifetime.end.p0(i64 4, ptr %8) #3
  %85 = load i32, ptr %4, align 4
  ret i32 %85
}

; Function Attrs: nounwind uwtable
define void @Kit_SopBestLiteralCover(ptr noundef %0, ptr noundef %1, i32 noundef %2, i32 noundef %3, ptr noundef %4) #0 {
  %6 = alloca ptr, align 8
  %7 = alloca ptr, align 8
  %8 = alloca i32, align 4
  %9 = alloca i32, align 4
  %10 = alloca ptr, align 8
  %11 = alloca i32, align 4
  store ptr %0, ptr %6, align 8, !tbaa !3
  store ptr %1, ptr %7, align 8, !tbaa !3
  store i32 %2, ptr %8, align 4, !tbaa !10
  store i32 %3, ptr %9, align 4, !tbaa !10
  store ptr %4, ptr %10, align 8, !tbaa !8
  call void @llvm.lifetime.start.p0(i64 4, ptr %11) #3
  %12 = load ptr, ptr %7, align 8, !tbaa !3
  %13 = load i32, ptr %9, align 4, !tbaa !10
  %14 = load i32, ptr %8, align 4, !tbaa !10
  %15 = call i32 @Kit_SopBestLiteral(ptr noundef %12, i32 noundef %13, i32 noundef %14)
  store i32 %15, ptr %11, align 4, !tbaa !10
  %16 = load ptr, ptr %6, align 8, !tbaa !3
  %17 = getelementptr inbounds nuw %struct.Kit_Sop_t_, ptr %16, i32 0, i32 1
  store i32 0, ptr %17, align 4, !tbaa !12
  %18 = load ptr, ptr %10, align 8, !tbaa !8
  %19 = call ptr @Vec_IntFetch(ptr noundef %18, i32 noundef 1)
  %20 = load ptr, ptr %6, align 8, !tbaa !3
  %21 = getelementptr inbounds nuw %struct.Kit_Sop_t_, ptr %20, i32 0, i32 2
  store ptr %19, ptr %21, align 8, !tbaa !15
  %22 = load ptr, ptr %6, align 8, !tbaa !3
  %23 = load i32, ptr %11, align 4, !tbaa !10
  %24 = call i32 @Kit_CubeSetLit(i32 noundef 0, i32 noundef %23)
  call void @Kit_SopPushCube(ptr noundef %22, i32 noundef %24)
  call void @llvm.lifetime.end.p0(i64 4, ptr %11) #3
  ret void
}