; Function Attrs: nofree norecurse nosync nounwind memory(readwrite, inaccessiblemem: write) uwtable
define void @Kit_SopBestLiteralCover(ptr noundef writeonly captures(none) %0, ptr noundef readonly captures(none) %1, i32 noundef %2, i32 noundef %3, ptr noundef captures(none) %4) local_unnamed_addr #2 {
  %6 = icmp sgt i32 %3, 0
  br i1 %6, label %.lr.ph45.i, label %Kit_SopBestLiteral.exit

.lr.ph45.i:                                       ; preds = %5
  %7 = getelementptr i8, ptr %1, i64 8
  %8 = getelementptr i8, ptr %1, i64 4
  br label %9

9:                                                ; preds = %21, %.lr.ph45.i
  %.02644.i = phi i32 [ -1, %.lr.ph45.i ], [ %.127.i, %21 ]
  %.02843.i = phi i32 [ -1, %.lr.ph45.i ], [ %.129.i, %21 ]
  %.03142.i = phi i32 [ 0, %.lr.ph45.i ], [ %22, %21 ]
  %10 = shl nuw i32 1, %.03142.i
  %11 = and i32 %10, %2
  %.not.i = icmp eq i32 %11, 0
  br i1 %.not.i, label %21, label %.preheader.i

.preheader.i:                                     ; preds = %9
  %.val.i = load i32, ptr %8, align 4, !tbaa !3
  %12 = icmp sgt i32 %.val.i, 0
  br i1 %12, label %.lr.ph.i, label %.critedge.i

.lr.ph.i:                                         ; preds = %.preheader.i
  %.val37.i = load ptr, ptr %7, align 8, !tbaa !12
  %wide.trip.count.i = zext nneg i32 %.val.i to i64
  br label %13

13:                                               ; preds = %16, %.lr.ph.i
  %indvars.iv.i = phi i64 [ 0, %.lr.ph.i ], [ %indvars.iv.next.i, %16 ]
  %.02539.i = phi i32 [ 0, %.lr.ph.i ], [ %spec.select.i, %16 ]
  %14 = getelementptr inbounds nuw i32, ptr %.val37.i, i64 %indvars.iv.i
  %15 = load i32, ptr %14, align 4, !tbaa !15
  %.not33.i = icmp eq i32 %15, 0
  br i1 %.not33.i, label %.critedge.i, label %16

16:                                               ; preds = %13
  %17 = lshr i32 %15, %.03142.i
  %18 = and i32 %17, 1
  %spec.select.i = add nuw nsw i32 %18, %.02539.i
  %indvars.iv.next.i = add nuw nsw i64 %indvars.iv.i, 1
  %exitcond.not.i = icmp eq i64 %indvars.iv.next.i, %wide.trip.count.i
  br i1 %exitcond.not.i, label %.critedge.i, label %13, !llvm.loop !35

.critedge.i:                                      ; preds = %16, %13, %.preheader.i
  %.025.lcssa.i = phi i32 [ 0, %.preheader.i ], [ %.02539.i, %13 ], [ %spec.select.i, %16 ]
  %19 = icmp samesign ugt i32 %.025.lcssa.i, 1
  %20 = icmp slt i32 %.02644.i, %.025.lcssa.i
  %or.cond.i = select i1 %19, i1 %20, i1 false
  %spec.select35.i = select i1 %or.cond.i, i32 %.03142.i, i32 %.02843.i
  %spec.select36.i = select i1 %or.cond.i, i32 %.025.lcssa.i, i32 %.02644.i
  br label %21

21:                                               ; preds = %.critedge.i, %9
  %.129.i = phi i32 [ %.02843.i, %9 ], [ %spec.select35.i, %.critedge.i ]
  %.127.i = phi i32 [ %.02644.i, %9 ], [ %spec.select36.i, %.critedge.i ]
  %22 = add nuw nsw i32 %.03142.i, 1
  %exitcond49.not.i = icmp eq i32 %22, %3
  br i1 %exitcond49.not.i, label %._crit_edge.loopexit.i, label %9, !llvm.loop !36

._crit_edge.loopexit.i:                           ; preds = %21
  %23 = icmp sgt i32 %.127.i, -1
  %24 = select i1 %23, i32 %.129.i, i32 -1
  br label %Kit_SopBestLiteral.exit

Kit_SopBestLiteral.exit:                          ; preds = %5, %._crit_edge.loopexit.i
  %.026.lcssa.i = phi i32 [ -1, %5 ], [ %24, %._crit_edge.loopexit.i ]
  %25 = getelementptr inbounds nuw i8, ptr %0, i64 4
  %26 = getelementptr inbounds nuw i8, ptr %4, i64 4
  %27 = load i32, ptr %26, align 4, !tbaa !10
  %28 = add nsw i32 %27, 1
  store i32 %28, ptr %26, align 4, !tbaa !10
  %29 = load i32, ptr %4, align 8, !tbaa !13
  %.not = icmp slt i32 %27, %29
  tail call void @llvm.assume(i1 %.not)
  %30 = getelementptr inbounds nuw i8, ptr %4, i64 8
  %31 = load ptr, ptr %30, align 8, !tbaa !14
  %32 = sext i32 %28 to i64
  %33 = getelementptr inbounds i32, ptr %31, i64 %32
  %34 = getelementptr inbounds i8, ptr %33, i64 -4
  %35 = getelementptr inbounds nuw i8, ptr %0, i64 8
  store ptr %34, ptr %35, align 8, !tbaa !12
  %36 = shl nuw i32 1, %.026.lcssa.i
  store i32 1, ptr %25, align 4, !tbaa !3
  store i32 %36, ptr %34, align 4, !tbaa !15
  ret void
}